target datalayout = "e-m:e-p270:32:32-p271:32:32-p272:64:64-i64:64-i128:128-f80:128-n8:16:32:64-S128"
target triple = "x86_64-pc-linux-gnu"

%struct.SwsLut3D = type { %struct.SwsColorMap, i8, [65 x [65 x [65 x %struct.v3u16_t]]], [129 x [129 x [65 x %struct.v3u16_t]]], [257 x %struct.v2u16_t] }
%struct.SwsColorMap = type { %struct.SwsColor, %struct.SwsColor, i32 }
%struct.SwsColor = type { i32, i32, %struct.AVPrimaryCoefficients, %struct.AVRational, %struct.AVRational, %struct.AVRational, %struct.AVRational }
%struct.AVPrimaryCoefficients = type { %struct.AVCIExy, %struct.AVCIExy, %struct.AVCIExy }
%struct.AVCIExy = type { %struct.AVRational, %struct.AVRational }
%struct.AVRational = type { i32, i32 }
%struct.v3u16_t = type { i16, i16, i16 }
%struct.v2u16_t = type { i16, i16 }

; Function Attrs: nounwind uwtable
define void @ff_sws_lut3d_update(ptr noundef %0, ptr noundef %1) #0 {
  %3 = alloca ptr, align 8
  %4 = alloca ptr, align 8
  store ptr %0, ptr %3, align 8, !tbaa !4
  store ptr %1, ptr %4, align 8, !tbaa !28
  %5 = load ptr, ptr %4, align 8, !tbaa !28
  %6 = icmp ne ptr %5, null
  br i1 %6, label %7, label %12

7:                                                ; preds = %2
  %8 = load ptr, ptr %3, align 8, !tbaa !4
  %9 = getelementptr inbounds nuw %struct.SwsLut3D, ptr %8, i32 0, i32 1
  %10 = load i8, ptr %9, align 4, !tbaa !9, !range !26, !noundef !27
  %11 = trunc i8 %10 to i1
  br i1 %11, label %13, label %12

12:                                               ; preds = %7, %2
  br label %31

13:                                               ; preds = %7
  %14 = load ptr, ptr %3, align 8, !tbaa !4
  %15 = getelementptr inbounds nuw %struct.SwsLut3D, ptr %14, i32 0, i32 0
  %16 = getelementptr inbounds nuw %struct.SwsColorMap, ptr %15, i32 0, i32 0
  %17 = getelementptr inbounds nuw %struct.SwsColor, ptr %16, i32 0, i32 5
  %18 = load ptr, ptr %4, align 8, !tbaa !28
  %19 = getelementptr inbounds nuw %struct.SwsColor, ptr %18, i32 0, i32 5
  call void @llvm.memcpy.p0.p0.i64(ptr align 4 %17, ptr align 4 %19, i64 8, i1 false), !tbaa.struct !30
  %20 = load ptr, ptr %3, align 8, !tbaa !4
  %21 = getelementptr inbounds nuw %struct.SwsLut3D, ptr %20, i32 0, i32 0
  %22 = getelementptr inbounds nuw %struct.SwsColorMap, ptr %21, i32 0, i32 0
  %23 = getelementptr inbounds nuw %struct.SwsColor, ptr %22, i32 0, i32 6
  %24 = load ptr, ptr %4, align 8, !tbaa !28
  %25 = getelementptr inbounds nuw %struct.SwsColor, ptr %24, i32 0, i32 6
  call void @llvm.memcpy.p0.p0.i64(ptr align 4 %23, ptr align 4 %25, i64 8, i1 false), !tbaa.struct !30
  %26 = load ptr, ptr %3, align 8, !tbaa !4
  %27 = getelementptr inbounds nuw %struct.SwsLut3D, ptr %26, i32 0, i32 4
  %28 = getelementptr inbounds [257 x %struct.v2u16_t], ptr %27, i64 0, i64 0
  %29 = load ptr, ptr %3, align 8, !tbaa !4
  %30 = getelementptr inbounds nuw %struct.SwsLut3D, ptr %29, i32 0, i32 0
  call void @ff_sws_tone_map_generate(ptr noundef %28, i32 noundef 257, ptr noundef %30)
  br label %31

31:                                               ; preds = %13, %12
  ret void
}