; Function Attrs: nounwind uwtable
define void @ff_sws_lut3d_update(ptr noundef %0, ptr noundef readonly captures(address_is_null) %1) local_unnamed_addr #0 {
  %.not = icmp eq ptr %1, null
  br i1 %.not, label %15, label %3

3:                                                ; preds = %2
  %4 = getelementptr inbounds nuw i8, ptr %0, i64 180
  %5 = load i8, ptr %4, align 4, !tbaa !4, !range !18, !noundef !19
  %6 = trunc nuw i8 %5 to i1
  br i1 %6, label %7, label %15

7:                                                ; preds = %3
  %8 = getelementptr inbounds nuw i8, ptr %0, i64 72
  %9 = getelementptr inbounds nuw i8, ptr %1, i64 72
  %10 = load i64, ptr %9, align 4
  store i64 %10, ptr %8, align 4
  %11 = getelementptr inbounds nuw i8, ptr %0, i64 80
  %12 = getelementptr inbounds nuw i8, ptr %1, i64 80
  %13 = load i64, ptr %12, align 4
  store i64 %13, ptr %11, align 4
  %14 = getelementptr inbounds nuw i8, ptr %0, i64 8137922
  tail call void @ff_sws_tone_map_generate(ptr noundef nonnull %14, i32 noundef 257, ptr noundef nonnull %0) #5
  br label %15

15:                                               ; preds = %2, %3, %7
  ret void
}